(i__main__
Option
p1
(dp2
S'vola'
p3
F0.25
sS'K'
F100
sS'S0'
p4
F105
sS'r'
F0.050000000000000003
sS'T'
F1
sb.(i__main__
OptionVega
p1
(dp2
S'vola'
p3
F0.25
sS'K'
F100
sS'S0'
p4
F105
sS'r'
F0.050000000000000003
sS'T'
F1
sb.