((i__main__
Option
p1
(dp2
S'S0'
p3
F105
sS'K'
F100
sS'r'
F0.050000000000000003
sS'vola'
p4
F0.25
sS'T'
F1
sb(i__main__
OptionVega
p5
(dp6
g3
F105
sS'K'
F100
sS'r'
F0.050000000000000003
sg4
F0.25
sS'T'
F1
sbt.