((i__main__
Option
p1
(dp2
S'K'
F100
sS'r'
F0.050000000000000003
sS'vola'
p3
F0.25
sS's0'
p4
F105
sS'T'
F1
sb(i__main__
Option_Vega
p5
(dp6
S'K'
F100
sS'r'
F0.050000000000000003
sg3
F0.25
sg4
F105
sS'T'
F1
sbt.